target datalayout = "e-m:e-p270:32:32-p271:32:32-p272:64:64-i64:64-i128:128-f80:128-n8:16:32:64-S128"
target triple = "x86_64-pc-linux-gnu"

%"class.absl::str_format_internal::FormatConversionSpecImpl" = type { i8, i8, i8, i32, i32 }
%"struct.absl::str_format_internal::ArgConvertResult.33" = type { i8 }

; Function Attrs: inlinehint mustprogress nounwind uwtable
define linkonce_odr dso_local noundef zeroext i1 @_ZN4absl19str_format_internal27FormatConversionCharIsFloatENS_20FormatConversionCharE(i8 noundef zeroext %0) #9 comdat {
  %2 = alloca i1, align 1
  %3 = alloca i8, align 1
  store i8 %0, ptr %3, align 1, !tbaa !11
  %4 = load i8, ptr %3, align 1, !tbaa !11
  %5 = icmp eq i8 %4, 14
  br i1 %5, label %27, label %6

6:                                                ; preds = %1
  %7 = load i8, ptr %3, align 1, !tbaa !11
  %8 = icmp eq i8 %7, 10
  br i1 %8, label %27, label %9

9:                                                ; preds = %6
  %10 = load i8, ptr %3, align 1, !tbaa !11
  %11 = icmp eq i8 %10, 8
  br i1 %11, label %27, label %12

12:                                               ; preds = %9
  %13 = load i8, ptr %3, align 1, !tbaa !11
  %14 = icmp eq i8 %13, 12
  br i1 %14, label %27, label %15

15:                                               ; preds = %12
  %16 = load i8, ptr %3, align 1, !tbaa !11
  %17 = icmp eq i8 %16, 15
  br i1 %17, label %27, label %18

18:                                               ; preds = %15
  %19 = load i8, ptr %3, align 1, !tbaa !11
  %20 = icmp eq i8 %19, 11
  br i1 %20, label %27, label %21

21:                                               ; preds = %18
  %22 = load i8, ptr %3, align 1, !tbaa !11
  %23 = icmp eq i8 %22, 9
  br i1 %23, label %27, label %24

24:                                               ; preds = %21
  %25 = load i8, ptr %3, align 1, !tbaa !11
  %26 = icmp eq i8 %25, 13
  br i1 %26, label %27, label %28

27:                                               ; preds = %24, %21, %18, %15, %12, %9, %6, %1
  store i1 true, ptr %2, align 1
  br label %29

28:                                               ; preds = %24
  store i1 false, ptr %2, align 1
  br label %29

29:                                               ; preds = %28, %27
  %30 = load i1, ptr %2, align 1
  ret i1 %30
}

; Function Attrs: mustprogress nounwind uwtable
define linkonce_odr dso_local void @_ZN4absl19str_format_internal24FormatConversionSpecImpl19set_conversion_charENS_20FormatConversionCharE(ptr noundef nonnull align 4 dereferenceable(12) %0, i8 noundef zeroext %1) #3 comdat align 2 {
  %3 = alloca ptr, align 8
  %4 = alloca i8, align 1
  store ptr %0, ptr %3, align 8, !tbaa !19
  store i8 %1, ptr %4, align 1, !tbaa !11
  %5 = load ptr, ptr %3, align 8
  %6 = load i8, ptr %4, align 1, !tbaa !11
  %7 = getelementptr inbounds nuw %"class.absl::str_format_internal::FormatConversionSpecImpl", ptr %5, i32 0, i32 0
  store i8 %6, ptr %7, align 4, !tbaa !21
  ret void
}

; Function Attrs: mustprogress nounwind uwtable
define linkonce_odr dso_local noundef zeroext i8 @_ZNK4absl19str_format_internal24FormatConversionSpecImpl15conversion_charEv(ptr noundef nonnull align 4 dereferenceable(12) %0) #3 comdat align 2 {
  %2 = alloca ptr, align 8
  store ptr %0, ptr %2, align 8, !tbaa !19
  %3 = load ptr, ptr %2, align 8
  %4 = getelementptr inbounds nuw %"class.absl::str_format_internal::FormatConversionSpecImpl", ptr %3, i32 0, i32 0
  %5 = load i8, ptr %4, align 4, !tbaa !21
  ret i8 %5
}

; Function Attrs: mustprogress uwtable
define internal noundef zeroext i1 @_ZN4absl19str_format_internal12_GLOBAL__N_115ConvertFloatArgIdEEbT_NS0_24FormatConversionSpecImplEPNS0_14FormatSinkImplE(double noundef %0, i64 %1, i32 %2, ptr noundef %3) #0 {
  %5 = alloca %"class.absl::str_format_internal::FormatConversionSpecImpl", align 4
  %6 = alloca { i64, i32 }, align 4
  %7 = alloca double, align 8
  %8 = alloca ptr, align 8
  %9 = getelementptr inbounds nuw { i64, i32 }, ptr %6, i32 0, i32 0
  store i64 %1, ptr %9, align 4
  %10 = getelementptr inbounds nuw { i64, i32 }, ptr %6, i32 0, i32 1
  store i32 %2, ptr %10, align 4
  call void @llvm.memcpy.p0.p0.i64(ptr align 4 %5, ptr align 4 %6, i64 12, i1 false)
  store double %0, ptr %7, align 8, !tbaa !89
  store ptr %3, ptr %8, align 8, !tbaa !7
  %11 = call noundef zeroext i8 @_ZNK4absl19str_format_internal24FormatConversionSpecImpl15conversion_charEv(ptr noundef nonnull align 4 dereferenceable(12) %5)
  %12 = icmp eq i8 %11, 18
  br i1 %12, label %13, label %14

13:                                               ; preds = %4
  call void @_ZN4absl19str_format_internal24FormatConversionSpecImpl19set_conversion_charENS_20FormatConversionCharE(ptr noundef nonnull align 4 dereferenceable(12) %5, i8 noundef zeroext 12)
  br label %14

14:                                               ; preds = %13, %4
  %15 = call noundef zeroext i8 @_ZNK4absl19str_format_internal24FormatConversionSpecImpl15conversion_charEv(ptr noundef nonnull align 4 dereferenceable(12) %5)
  %16 = call noundef zeroext i1 @_ZN4absl19str_format_internal27FormatConversionCharIsFloatENS_20FormatConversionCharE(i8 noundef zeroext %15)
  br i1 %16, label %17, label %21

17:                                               ; preds = %14
  %18 = load double, ptr %7, align 8, !tbaa !89
  %19 = load ptr, ptr %8, align 8, !tbaa !7
  %20 = call noundef zeroext i1 @_ZN4absl19str_format_internal16ConvertFloatImplEdRKNS0_24FormatConversionSpecImplEPNS0_14FormatSinkImplE(double noundef %18, ptr noundef nonnull align 4 dereferenceable(12) %5, ptr noundef %19)
  br label %21

21:                                               ; preds = %17, %14
  %22 = phi i1 [ false, %14 ], [ %20, %17 ]
  ret i1 %22
}

; Function Attrs: mustprogress uwtable
define dso_local i8 @_ZN4absl19str_format_internal17FormatConvertImplEdNS0_24FormatConversionSpecImplEPNS0_14FormatSinkImplE(double noundef %0, i64 %1, i32 %2, ptr noundef %3) #0 {
  %5 = alloca %"struct.absl::str_format_internal::ArgConvertResult.33", align 1
  %6 = alloca %"class.absl::str_format_internal::FormatConversionSpecImpl", align 4
  %7 = alloca { i64, i32 }, align 4
  %8 = alloca double, align 8
  %9 = alloca ptr, align 8
  %10 = alloca %"class.absl::str_format_internal::FormatConversionSpecImpl", align 4
  %11 = alloca { i64, i32 }, align 4
  %12 = getelementptr inbounds nuw { i64, i32 }, ptr %7, i32 0, i32 0
  store i64 %1, ptr %12, align 4
  %13 = getelementptr inbounds nuw { i64, i32 }, ptr %7, i32 0, i32 1
  store i32 %2, ptr %13, align 4
  call void @llvm.memcpy.p0.p0.i64(ptr align 4 %6, ptr align 4 %7, i64 12, i1 false)
  store double %0, ptr %8, align 8, !tbaa !89
  store ptr %3, ptr %9, align 8, !tbaa !7
  %14 = getelementptr inbounds nuw %"struct.absl::str_format_internal::ArgConvertResult.33", ptr %5, i32 0, i32 0
  %15 = load double, ptr %8, align 8, !tbaa !89
  call void @llvm.memcpy.p0.p0.i64(ptr align 4 %10, ptr align 4 %6, i64 12, i1 false), !tbaa.struct !10
  %16 = load ptr, ptr %9, align 8, !tbaa !7
  call void @llvm.memcpy.p0.p0.i64(ptr align 4 %11, ptr align 4 %10, i64 12, i1 false)
  %17 = getelementptr inbounds nuw { i64, i32 }, ptr %11, i32 0, i32 0
  %18 = load i64, ptr %17, align 4
  %19 = getelementptr inbounds nuw { i64, i32 }, ptr %11, i32 0, i32 1
  %20 = load i32, ptr %19, align 4
  %21 = call noundef zeroext i1 @_ZN4absl19str_format_internal12_GLOBAL__N_115ConvertFloatArgIdEEbT_NS0_24FormatConversionSpecImplEPNS0_14FormatSinkImplE(double noundef %15, i64 %18, i32 %20, ptr noundef %16)
  %22 = zext i1 %21 to i8
  store i8 %22, ptr %14, align 1, !tbaa !85
  %23 = getelementptr inbounds nuw %"struct.absl::str_format_internal::ArgConvertResult.33", ptr %5, i32 0, i32 0
  %24 = load i8, ptr %23, align 1
  ret i8 %24
}